; Function Attrs: mustprogress nounwind uwtable
define hidden noundef ptr @_ZN14PredicateBlock23skip_regular_predicatesEP4NodeN14Deoptimization11DeoptReasonE(ptr noundef %0, i32 noundef %1) local_unnamed_addr #0 align 2 {
  %3 = getelementptr inbounds i8, ptr %0, i64 44
  %4 = load i32, ptr %3, align 4
  %5 = and i32 %4, 127
  %6 = icmp eq i32 %5, 72
  br i1 %6, label %.lr.ph, label %_ZN16RuntimePredicate15is_success_projEP4NodeN14Deoptimization11DeoptReasonE.exit.thread

.lr.ph:                                           ; preds = %2, %25
  %.05 = phi ptr [ %30, %25 ], [ %0, %2 ]
  %7 = getelementptr inbounds i8, ptr %.05, i64 8
  %8 = load ptr, ptr %7, align 8
  %9 = load ptr, ptr %8, align 8
  %10 = load ptr, ptr %9, align 8
  %11 = load ptr, ptr %10, align 8
  %12 = tail call noundef i32 %11(ptr noundef nonnull align 8 dereferenceable(60) %9) #8
  switch i32 %12, label %_ZN16RuntimePredicate15is_success_projEP4NodeN14Deoptimization11DeoptReasonE.exit.thread [
    i32 177, label %13
    i32 178, label %15
  ]

13:                                               ; preds = %.lr.ph
  %14 = tail call noundef zeroext i1 @_ZNK6IfNode18is_zero_trip_guardEv(ptr noundef nonnull align 8 dereferenceable(60) %9) #8
  br i1 %14, label %_ZN16RuntimePredicate15is_success_projEP4NodeN14Deoptimization11DeoptReasonE.exit.thread, label %15

15:                                               ; preds = %13, %.lr.ph
  %16 = tail call noundef ptr @_ZNK8ProjNode27is_uncommon_trap_if_patternEN14Deoptimization11DeoptReasonE(ptr noundef nonnull align 8 dereferenceable(57) %.05, i32 noundef 0) #8
  %17 = icmp eq ptr %16, null
  br i1 %17, label %_ZN16RuntimePredicate15is_success_projEP4NodeN14Deoptimization11DeoptReasonE.exit, label %18

18:                                               ; preds = %15
  %19 = tail call noundef i32 @_ZNK18CallStaticJavaNode21uncommon_trap_requestEv(ptr noundef nonnull align 8 dereferenceable(145) %16) #8
  %20 = icmp slt i32 %19, 0
  %21 = xor i32 %19, -1
  %22 = lshr i32 %21, 3
  %23 = and i32 %22, 31
  %.0.i.i.i.i = select i1 %20, i32 %23, i32 9
  br label %_ZN16RuntimePredicate15is_success_projEP4NodeN14Deoptimization11DeoptReasonE.exit

_ZN16RuntimePredicate15is_success_projEP4NodeN14Deoptimization11DeoptReasonE.exit: ; preds = %15, %18
  %.0.i3.i.i = phi i32 [ %.0.i.i.i.i, %18 ], [ 0, %15 ]
  %24 = icmp eq i32 %.0.i3.i.i, %1
  br i1 %24, label %25, label %_ZN16RuntimePredicate15is_success_projEP4NodeN14Deoptimization11DeoptReasonE.exit.thread

25:                                               ; preds = %_ZN16RuntimePredicate15is_success_projEP4NodeN14Deoptimization11DeoptReasonE.exit
  %26 = load ptr, ptr %7, align 8
  %27 = load ptr, ptr %26, align 8
  %28 = getelementptr inbounds i8, ptr %27, i64 8
  %29 = load ptr, ptr %28, align 8
  %30 = load ptr, ptr %29, align 8
  %31 = getelementptr inbounds i8, ptr %30, i64 44
  %32 = load i32, ptr %31, align 4
  %33 = and i32 %32, 127
  %34 = icmp eq i32 %33, 72
  br i1 %34, label %.lr.ph, label %_ZN16RuntimePredicate15is_success_projEP4NodeN14Deoptimization11DeoptReasonE.exit.thread, !llvm.loop !8

_ZN16RuntimePredicate15is_success_projEP4NodeN14Deoptimization11DeoptReasonE.exit.thread: ; preds = %_ZN16RuntimePredicate15is_success_projEP4NodeN14Deoptimization11DeoptReasonE.exit, %25, %.lr.ph, %13, %2
  %.0.lcssa = phi ptr [ %0, %2 ], [ %.05, %13 ], [ %.05, %.lr.ph ], [ %30, %25 ], [ %.05, %_ZN16RuntimePredicate15is_success_projEP4NodeN14Deoptimization11DeoptReasonE.exit ]
  ret ptr %.0.lcssa
}